target datalayout = "e-m:e-p270:32:32-p271:32:32-p272:64:64-i64:64-i128:128-f80:128-n8:16:32:64-S128"
target triple = "x86_64-unknown-linux-gnu"

module asm ".section\09\22.initcall5.init\22, \22a\22\09\09"
module asm "__initcall__kmod_proc__287_63_proc_kmsg_init5:\09\09\09"
module asm ".long\09proc_kmsg_init - .\09"
module asm ".previous\09\09\09\09\09"

%struct.proc_ops = type { i32, ptr, ptr, ptr, ptr, ptr, ptr, ptr, ptr, ptr, ptr, ptr }
%struct.wait_queue_head = type { %struct.spinlock, %struct.list_head }
%struct.spinlock = type { %union.anon.0 }
%union.anon.0 = type { %struct.raw_spinlock }
%struct.raw_spinlock = type { %struct.qspinlock }
%struct.qspinlock = type { %union.anon.1 }
%union.anon.1 = type { %struct.atomic_t }
%struct.atomic_t = type { i32 }
%struct.list_head = type { ptr, ptr }

@__UNIQUE_ID___addressable_proc_kmsg_init288 = internal global ptr @proc_kmsg_init, section ".discard.addressable", align 8
@.str = private unnamed_addr constant [5 x i8] c"kmsg\00", align 1
@kmsg_proc_ops = internal constant %struct.proc_ops { i32 1, ptr @kmsg_open, ptr @kmsg_read, ptr null, ptr null, ptr @generic_file_llseek, ptr @kmsg_release, ptr @kmsg_poll, ptr null, ptr null, ptr null, ptr null }, align 8
@log_wait = external dso_local global %struct.wait_queue_head, align 8
@llvm.compiler.used = appending global [1 x ptr] [ptr @__UNIQUE_ID___addressable_proc_kmsg_init288], section "llvm.metadata"

; Function Attrs: cold fn_ret_thunk_extern nounwind null_pointer_is_valid optsize
define internal noundef i32 @proc_kmsg_init() #0 section ".init.text" align 16 {
  %1 = tail call ptr @proc_create(ptr noundef nonnull @.str, i16 noundef zeroext 256, ptr noundef null, ptr noundef nonnull @kmsg_proc_ops) #3
  ret i32 0
}

; Function Attrs: null_pointer_is_valid
declare dso_local ptr @proc_create(ptr noundef, i16 noundef zeroext, ptr noundef, ptr noundef) local_unnamed_addr #1

; Function Attrs: fn_ret_thunk_extern nounwind null_pointer_is_valid
define internal i32 @kmsg_open(ptr nocapture readnone %0, ptr nocapture readnone %1) #2 align 16 {
  %3 = tail call i32 @do_syslog(i32 noundef 1, ptr noundef null, i32 noundef 0, i32 noundef 1) #3
  ret i32 %3
}

; Function Attrs: fn_ret_thunk_extern nounwind null_pointer_is_valid
define internal i64 @kmsg_read(ptr nocapture noundef readonly %0, ptr noundef %1, i64 noundef %2, ptr nocapture readnone %3) #2 align 16 {
  %5 = getelementptr inbounds i8, ptr %0, i64 72
  %6 = load i32, ptr %5, align 8
  %7 = and i32 %6, 2048
  %8 = icmp eq i32 %7, 0
  br i1 %8, label %12, label %9

9:                                                ; preds = %4
  %10 = tail call i32 @do_syslog(i32 noundef 9, ptr noundef null, i32 noundef 0, i32 noundef 1) #3
  %11 = icmp eq i32 %10, 0
  br i1 %11, label %16, label %12

12:                                               ; preds = %9, %4
  %13 = trunc i64 %2 to i32
  %14 = tail call i32 @do_syslog(i32 noundef 2, ptr noundef %1, i32 noundef %13, i32 noundef 1) #3
  %15 = sext i32 %14 to i64
  br label %16

16:                                               ; preds = %12, %9
  %17 = phi i64 [ %15, %12 ], [ -11, %9 ]
  ret i64 %17
}

; Function Attrs: null_pointer_is_valid
declare dso_local i64 @generic_file_llseek(ptr noundef, i64 noundef, i32 noundef) #1

; Function Attrs: fn_ret_thunk_extern nounwind null_pointer_is_valid
define internal noundef i32 @kmsg_release(ptr nocapture readnone %0, ptr nocapture readnone %1) #2 align 16 {
  %3 = tail call i32 @do_syslog(i32 noundef 0, ptr noundef null, i32 noundef 0, i32 noundef 1) #3
  ret i32 0
}

; Function Attrs: fn_ret_thunk_extern nounwind null_pointer_is_valid
define internal i32 @kmsg_poll(ptr noundef %0, ptr noundef %1) #2 align 16 {
  %3 = icmp eq ptr %1, null
  br i1 %3, label %8, label %4

4:                                                ; preds = %2
  %5 = load ptr, ptr %1, align 8
  %6 = icmp eq ptr %5, null
  br i1 %6, label %8, label %7

7:                                                ; preds = %4
  tail call void %5(ptr noundef %0, ptr noundef nonnull @log_wait, ptr noundef nonnull %1) #3
  br label %8

8:                                                ; preds = %7, %4, %2
  %9 = tail call i32 @do_syslog(i32 noundef 9, ptr noundef null, i32 noundef 0, i32 noundef 1) #3
  %10 = icmp eq i32 %9, 0
  %11 = select i1 %10, i32 0, i32 65
  ret i32 %11
}

; Function Attrs: null_pointer_is_valid
declare dso_local i32 @do_syslog(i32 noundef, ptr noundef, i32 noundef, i32 noundef) local_unnamed_addr #1


!llvm.module.flags = !{!0, !1, !2, !3, !4}

!0 = !{i32 1, !"wchar_size", i32 2}
!1 = !{i32 8, !"cf-protection-branch", i32 1}
!2 = !{i32 4, !"function_return_thunk_extern", i32 1}
!3 = !{i32 4, !"indirect_branch_cs_prefix", i32 1}
!4 = !{i32 4, !"SkipRaxSetup", i32 1}
